	.file	"test.cpp"
	.text
	.globl	main
	.type	main, @function
main:
.LFB1:
	.cfi_startproc
	pushq	%rbp
	.cfi_def_cfa_offset 16
	.cfi_offset 6, -16
	movq	%rsp, %rbp
	.cfi_def_cfa_register 6
	subq	$16, %rsp
	movl	$1, -8(%rbp)
	movl	$2, -4(%rbp)
	leaq	-4(%rbp), %rdx
	leaq	-8(%rbp), %rax
	movq	%rdx, %rsi
	movq	%rax, %rdi
	call	_Z4_ASSIiERT_S1_RKS0_
	movl	$0, %eax
	leave
	.cfi_def_cfa 7, 8
	ret
	.cfi_endproc
.LFE1:
	.size	main, .-main
	.section	.text._Z4_ASSIiERT_S1_RKS0_,"axG",@progbits,_Z4_ASSIiERT_S1_RKS0_,comdat
	.weak	_Z4_ASSIiERT_S1_RKS0_
	.type	_Z4_ASSIiERT_S1_RKS0_, @function
_Z4_ASSIiERT_S1_RKS0_:
.LFB2:
	.cfi_startproc
	pushq	%rbp
	.cfi_def_cfa_offset 16
	.cfi_offset 6, -16
	movq	%rsp, %rbp
	.cfi_def_cfa_register 6
	movq	%rdi, -8(%rbp)
	movq	%rsi, -16(%rbp)
	movq	-16(%rbp), %rax
	movl	(%rax), %edx
	movq	-8(%rbp), %rax
	movl	%edx, (%rax)
	movq	-8(%rbp), %rax
	popq	%rbp
	.cfi_def_cfa 7, 8
	ret
	.cfi_endproc
.LFE2:
	.size	_Z4_ASSIiERT_S1_RKS0_, .-_Z4_ASSIiERT_S1_RKS0_
	.ident	"GCC: (Ubuntu/Linaro 4.6.1-9ubuntu3) 4.6.1"
	.section	.note.GNU-stack,"",@progbits

	.cfi_startproc
	pushq	%rbp
	.cfi_def_cfa_offset 16
	.cfi_offset 6, -16
	movq	%rsp, %rbp
	.cfi_def_cfa_register 6
	movl	$1, -8(%rbp)
	movl	$2, -4(%rbp)
	movl	-4(%rbp), %eax
	movl	%eax, -8(%rbp)
	movl	$0, %eax
	popq	%rbp
	.cfi_def_cfa 7, 8
	ret
	.cfi_endproc
